Certificate:
    Data:
        Version: 3 (0x2)
        Serial Number:
            11:82:5d:80:30:4c:a9:6d:ed:68:88:10:c8:90:4d:08:50:3c:4c:b0
        Signature Algorithm: sha256WithRSAEncryption
        Issuer: CN=Root Certification Authority
        Validity
            Not Before: Jul  3 19:47:44 2020 GMT
            Not After : Jul  4 19:47:44 2120 GMT
        Subject: CN=Root Certification Authority
        Subject Public Key Info:
            Public Key Algorithm: rsaEncryption
                RSA Public-Key: (2048 bit)
                Modulus:
                    00:c5:f2:d9:a9:48:a2:06:dc:89:7d:e8:ab:2e:1f:
                    70:ea:da:82:46:45:4e:42:38:6e:8d:a6:3e:28:84:
                    f1:25:c0:ea:25:af:61:ca:87:38:a5:7b:3f:d0:3a:
                    57:82:c7:eb:f1:b5:b4:70:0e:71:69:22:5f:ae:49:
                    d3:51:df:19:97:bf:00:c3:de:99:3a:4d:f3:6d:4a:
                    bf:73:7e:b1:aa:72:40:b1:0d:fc:d4:af:11:f5:a9:
                    7e:c3:36:7a:ac:25:86:a4:3e:7a:fe:3f:0f:22:f7:
                    d6:87:15:ba:33:c1:36:c3:79:4d:79:b3:ca:a5:2d:
                    15:9a:63:ad:38:32:99:74:76:d7:72:7e:2f:69:ff:
                    7b:b0:f6:79:ad:da:2d:9f:51:4e:d9:70:15:9c:83:
                    e9:10:8c:ec:7f:39:27:5d:b9:6e:86:c9:93:54:6b:
                    aa:82:12:82:b0:32:36:c5:94:6c:48:bb:3f:c6:af:
                    ef:1c:e1:0c:18:e6:0c:4c:bf:58:67:5b:1a:cd:15:
                    62:37:40:40:5f:1d:76:e2:24:01:28:65:cc:ed:3f:
                    e1:f1:08:79:94:12:13:4c:4c:e2:a4:53:b8:fe:78:
                    7f:07:00:cd:c1:3a:7b:0e:f4:35:ce:83:c7:f3:ce:
                    71:9d:1f:7b:88:66:bc:b6:39:5e:26:28:e5:ef:5a:
                    0d:05
                Exponent: 65537 (0x10001)
        X509v3 extensions:
            X509v3 Subject Key Identifier: 
                21:E8:DE:B6:D8:64:01:72:02:C5:1C:CA:16:0C:D9:05:1A:14:A1:0C
            X509v3 Authority Key Identifier: 
                keyid:21:E8:DE:B6:D8:64:01:72:02:C5:1C:CA:16:0C:D9:05:1A:14:A1:0C

            X509v3 Basic Constraints: critical
                CA:TRUE
            X509v3 Key Usage: critical
                Certificate Sign, CRL Sign
    Signature Algorithm: sha256WithRSAEncryption
         9d:4c:17:84:f3:83:90:97:a7:df:e5:af:53:ac:d7:75:94:c4:
         a0:29:fa:d7:8f:a6:f8:fa:4b:d6:5e:d2:6e:8d:6d:46:89:1f:
         7b:30:2c:2d:d3:3b:b6:64:1d:ec:ad:60:c1:96:4b:9a:bc:f9:
         d0:5d:af:a1:73:f7:03:99:8a:e2:59:47:48:1c:8f:7a:99:97:
         20:78:e2:16:16:e4:c3:c9:82:4e:25:58:23:75:c9:9c:71:67:
         8e:c4:79:e1:b9:ac:d9:c2:51:41:3d:a6:bf:07:0b:4b:14:8c:
         ca:42:0f:c3:b7:71:c0:fb:3e:5e:de:2b:e5:7f:92:52:50:12:
         4f:63:a5:fa:3b:63:59:fa:37:3f:42:f4:ec:13:a0:c7:5d:0c:
         9c:cd:6b:32:96:e7:44:da:5f:8c:cf:c7:51:eb:81:3b:cc:e8:
         39:41:0c:a1:bb:8f:3a:f8:b1:ee:2b:97:f4:13:c9:a8:9c:1c:
         2f:2f:51:57:e4:0c:4e:2b:29:7f:5e:12:72:63:8c:bb:40:2c:
         97:14:bf:1e:7a:66:bc:64:af:78:80:64:19:37:ca:7a:f3:de:
         15:e6:23:1d:d0:90:7d:e6:5f:21:88:23:c5:23:ca:f2:29:00:
         1d:9a:7a:58:37:6d:a9:9e:ab:24:b1:c6:c5:3b:46:11:a7:53:
         80:ef:aa:9c
-----BEGIN CERTIFICATE-----
MIIDQTCCAimgAwIBAgIUEYJdgDBMqW3taIgQyJBNCFA8TLAwDQYJKoZIhvcNAQEL
BQAwJzElMCMGA1UEAwwcUm9vdCBDZXJ0aWZpY2F0aW9uIEF1dGhvcml0eTAgFw0y
MDA3MDMxOTQ3NDRaGA8yMTIwMDcwNDE5NDc0NFowJzElMCMGA1UEAwwcUm9vdCBD
ZXJ0aWZpY2F0aW9uIEF1dGhvcml0eTCCASIwDQYJKoZIhvcNAQEBBQADggEPADCC
AQoCggEBAMXy2alIogbciX3oqy4fcOragkZFTkI4bo2mPiiE8SXA6iWvYcqHOKV7
P9A6V4LH6/G1tHAOcWkiX65J01HfGZe/AMPemTpN821Kv3N+sapyQLEN/NSvEfWp
fsM2eqwlhqQ+ev4/DyL31ocVujPBNsN5TXmzyqUtFZpjrTgymXR213J+L2n/e7D2
ea3aLZ9RTtlwFZyD6RCM7H85J125bobJk1RrqoISgrAyNsWUbEi7P8av7xzhDBjm
DEy/WGdbGs0VYjdAQF8dduIkAShlzO0/4fEIeZQSE0xM4qRTuP54fwcAzcE6ew70
Nc6Dx/POcZ0fe4hmvLY5XiYo5e9aDQUCAwEAAaNjMGEwHQYDVR0OBBYEFCHo3rbY
ZAFyAsUcyhYM2QUaFKEMMB8GA1UdIwQYMBaAFCHo3rbYZAFyAsUcyhYM2QUaFKEM
MA8GA1UdEwEB/wQFMAMBAf8wDgYDVR0PAQH/BAQDAgEGMA0GCSqGSIb3DQEBCwUA
A4IBAQCdTBeE84OQl6ff5a9TrNd1lMSgKfrXj6b4+kvWXtJujW1GiR97MCwt0zu2
ZB3srWDBlkuavPnQXa+hc/cDmYriWUdIHI96mZcgeOIWFuTDyYJOJVgjdcmccWeO
xHnhuazZwlFBPaa/BwtLFIzKQg/Dt3HA+z5e3ivlf5JSUBJPY6X6O2NZ+jc/QvTs
E6DHXQyczWsyludE2l+Mz8dR64E7zOg5QQyhu486+LHuK5f0E8monBwvL1FX5AxO
Kyl/XhJyY4y7QCyXFL8eema8ZK94gGQZN8p6894V5iMd0JB95l8hiCPFI8ryKQAd
mnpYN22pnqskscbFO0YRp1OA76qc
-----END CERTIFICATE-----
